; Function Attrs: nounwind uwtable
define noundef ptr @Hop_ObjCreatePo(ptr noundef %0, ptr noundef %1) local_unnamed_addr #0 {
  %3 = tail call fastcc ptr @Hop_ManFetchMemory(ptr noundef %0)
  %4 = getelementptr inbounds nuw i8, ptr %3, i64 32
  %5 = load i32, ptr %4, align 8
  %6 = and i32 %5, -8
  %7 = or disjoint i32 %6, 3
  store i32 %7, ptr %4, align 8
  %8 = getelementptr inbounds nuw i8, ptr %0, i64 8
  %9 = load ptr, ptr %8, align 8
  %10 = getelementptr inbounds nuw i8, ptr %9, i64 4
  %11 = load i32, ptr %10, align 4
  %12 = load i32, ptr %9, align 8
  %13 = icmp eq i32 %11, %12
  br i1 %13, label %14, label %.Vec_PtrGrow.exit11_crit_edge.i

.Vec_PtrGrow.exit11_crit_edge.i:                  ; preds = %2
  %.phi.trans.insert.i = getelementptr inbounds nuw i8, ptr %9, i64 8
  %.pre.i = load ptr, ptr %.phi.trans.insert.i, align 8
  br label %Vec_PtrPush.exit

14:                                               ; preds = %2
  %15 = icmp slt i32 %11, 16
  br i1 %15, label %16, label %24

16:                                               ; preds = %14
  %17 = getelementptr inbounds nuw i8, ptr %9, i64 8
  %18 = load ptr, ptr %17, align 8
  %.not9.i.i = icmp eq ptr %18, null
  br i1 %.not9.i.i, label %21, label %19

19:                                               ; preds = %16
  %20 = tail call dereferenceable_or_null(128) ptr @realloc(ptr noundef nonnull %18, i64 noundef 128) #8
  br label %Vec_PtrGrow.exit.i

21:                                               ; preds = %16
  %22 = tail call noalias dereferenceable_or_null(128) ptr @malloc(i64 noundef 128) #9
  br label %Vec_PtrGrow.exit.i

Vec_PtrGrow.exit.i:                               ; preds = %21, %19
  %23 = phi ptr [ %20, %19 ], [ %22, %21 ]
  store ptr %23, ptr %17, align 8
  store i32 16, ptr %9, align 8
  br label %Vec_PtrPush.exit

24:                                               ; preds = %14
  %25 = shl nuw nsw i32 %11, 1
  %26 = getelementptr inbounds nuw i8, ptr %9, i64 8
  %27 = load ptr, ptr %26, align 8
  %.not9.i10.i = icmp eq ptr %27, null
  %28 = zext nneg i32 %25 to i64
  %29 = shl nuw nsw i64 %28, 3
  br i1 %.not9.i10.i, label %32, label %30

30:                                               ; preds = %24
  %31 = tail call ptr @realloc(ptr noundef nonnull %27, i64 noundef %29) #8
  br label %34

32:                                               ; preds = %24
  %33 = tail call noalias ptr @malloc(i64 noundef %29) #9
  br label %34

34:                                               ; preds = %32, %30
  %35 = phi ptr [ %31, %30 ], [ %33, %32 ]
  store ptr %35, ptr %26, align 8
  store i32 %25, ptr %9, align 8
  br label %Vec_PtrPush.exit

Vec_PtrPush.exit:                                 ; preds = %.Vec_PtrGrow.exit11_crit_edge.i, %Vec_PtrGrow.exit.i, %34
  %36 = phi ptr [ %.pre.i, %.Vec_PtrGrow.exit11_crit_edge.i ], [ %35, %34 ], [ %23, %Vec_PtrGrow.exit.i ]
  %37 = load i32, ptr %10, align 4
  %38 = add nsw i32 %37, 1
  store i32 %38, ptr %10, align 4
  %39 = sext i32 %37 to i64
  %40 = getelementptr inbounds ptr, ptr %36, i64 %39
  store ptr %3, ptr %40, align 8
  %41 = getelementptr inbounds nuw i8, ptr %3, i64 16
  store ptr %1, ptr %41, align 8
  %42 = getelementptr inbounds nuw i8, ptr %0, i64 132
  %43 = load i32, ptr %42, align 4
  %.not = icmp eq i32 %43, 0
  %44 = ptrtoint ptr %1 to i64
  %45 = and i64 %44, -2
  %46 = inttoptr i64 %45 to ptr
  %47 = getelementptr i8, ptr %46, i64 32
  %.val = load i32, ptr %47, align 8
  %48 = and i32 %.val, -64
  br i1 %.not, label %53, label %49

49:                                               ; preds = %Vec_PtrPush.exit
  %50 = add i32 %48, 64
  %51 = and i32 %.val, 63
  %52 = or disjoint i32 %50, %51
  store i32 %52, ptr %47, align 8
  br label %57

53:                                               ; preds = %Vec_PtrPush.exit
  %54 = load i32, ptr %4, align 8
  %55 = and i32 %54, 63
  %56 = or disjoint i32 %55, %48
  store i32 %56, ptr %4, align 8
  br label %57

57:                                               ; preds = %53, %49
  %58 = and i64 %44, 1
  %.not.i = icmp eq i64 %58, 0
  br i1 %.not.i, label %65, label %59

59:                                               ; preds = %57
  %60 = and i64 %44, -2
  %61 = inttoptr i64 %60 to ptr
  %62 = getelementptr inbounds nuw i8, ptr %61, i64 32
  %63 = load i32, ptr %62, align 8
  %.lobit.i = and i32 %63, 8
  %64 = xor i32 %.lobit.i, 8
  br label %Hop_ObjPhaseCompl.exit

65:                                               ; preds = %57
  %66 = getelementptr inbounds nuw i8, ptr %1, i64 32
  %67 = load i32, ptr %66, align 8
  %68 = and i32 %67, 8
  br label %Hop_ObjPhaseCompl.exit

Hop_ObjPhaseCompl.exit:                           ; preds = %59, %65
  %69 = phi i32 [ %64, %59 ], [ %68, %65 ]
  %70 = load i32, ptr %4, align 8
  %71 = and i32 %70, -9
  %72 = or disjoint i32 %71, %69
  store i32 %72, ptr %4, align 8
  %73 = getelementptr inbounds nuw i8, ptr %0, i64 84
  %74 = load i32, ptr %73, align 4
  %75 = add nsw i32 %74, 1
  store i32 %75, ptr %73, align 4
  ret ptr %3
}